target datalayout = "e-m:e-p270:32:32-p271:32:32-p272:64:64-i64:64-i128:128-f80:128-n8:16:32:64-S128"
target triple = "x86_64-pc-linux-gnu"

%"class.std::__cxx11::basic_string" = type { %"struct.std::__cxx11::basic_string<char>::_Alloc_hider", i64, %union.anon }
%"struct.std::__cxx11::basic_string<char>::_Alloc_hider" = type { ptr }
%union.anon = type { i64, [8 x i8] }
%"class.Assimp::FBX::Object" = type { ptr, ptr, %"class.std::__cxx11::basic_string", i64 }
%"class.std::__shared_count" = type { ptr }
%"class.__gnu_cxx::__normal_iterator.150" = type { ptr }
%"class.Assimp::FBX::Model" = type { %"class.Assimp::FBX::Object", %"class.std::vector.115", %"class.std::vector.120", %"class.std::vector.125", %"class.std::__cxx11::basic_string", %"class.std::__cxx11::basic_string", %"class.std::shared_ptr" }
%"class.std::vector.115" = type { %"struct.std::_Vector_base.116" }
%"struct.std::_Vector_base.116" = type { %"struct.std::_Vector_base<const Assimp::FBX::Material *, std::allocator<const Assimp::FBX::Material *>>::_Vector_impl" }
%"struct.std::_Vector_base<const Assimp::FBX::Material *, std::allocator<const Assimp::FBX::Material *>>::_Vector_impl" = type { %"struct.std::_Vector_base<const Assimp::FBX::Material *, std::allocator<const Assimp::FBX::Material *>>::_Vector_impl_data" }
%"struct.std::_Vector_base<const Assimp::FBX::Material *, std::allocator<const Assimp::FBX::Material *>>::_Vector_impl_data" = type { ptr, ptr, ptr }
%"class.std::vector.120" = type { %"struct.std::_Vector_base.121" }
%"struct.std::_Vector_base.121" = type { %"struct.std::_Vector_base<const Assimp::FBX::Geometry *, std::allocator<const Assimp::FBX::Geometry *>>::_Vector_impl" }
%"struct.std::_Vector_base<const Assimp::FBX::Geometry *, std::allocator<const Assimp::FBX::Geometry *>>::_Vector_impl" = type { %"struct.std::_Vector_base<const Assimp::FBX::Geometry *, std::allocator<const Assimp::FBX::Geometry *>>::_Vector_impl_data" }
%"struct.std::_Vector_base<const Assimp::FBX::Geometry *, std::allocator<const Assimp::FBX::Geometry *>>::_Vector_impl_data" = type { ptr, ptr, ptr }
%"class.std::vector.125" = type { %"struct.std::_Vector_base.126" }
%"struct.std::_Vector_base.126" = type { %"struct.std::_Vector_base<const Assimp::FBX::NodeAttribute *, std::allocator<const Assimp::FBX::NodeAttribute *>>::_Vector_impl" }
%"struct.std::_Vector_base<const Assimp::FBX::NodeAttribute *, std::allocator<const Assimp::FBX::NodeAttribute *>>::_Vector_impl" = type { %"struct.std::_Vector_base<const Assimp::FBX::NodeAttribute *, std::allocator<const Assimp::FBX::NodeAttribute *>>::_Vector_impl_data" }
%"struct.std::_Vector_base<const Assimp::FBX::NodeAttribute *, std::allocator<const Assimp::FBX::NodeAttribute *>>::_Vector_impl_data" = type { ptr, ptr, ptr }
%"class.std::shared_ptr" = type { %"class.std::__shared_ptr" }
%"class.std::__shared_ptr" = type { ptr, %"class.std::__shared_count" }

@_ZTIN6Assimp3FBX13NodeAttributeE = linkonce_odr hidden constant { ptr, ptr, ptr } { ptr getelementptr inbounds (ptr, ptr @_ZTVN10__cxxabiv120__si_class_type_infoE, i64 2), ptr @_ZTSN6Assimp3FBX13NodeAttributeE, ptr @_ZTIN6Assimp3FBX6ObjectE }, comdat, align 8
@_ZTIN6Assimp3FBX6CameraE = linkonce_odr hidden constant { ptr, ptr, ptr } { ptr getelementptr inbounds (ptr, ptr @_ZTVN10__cxxabiv120__si_class_type_infoE, i64 2), ptr @_ZTSN6Assimp3FBX6CameraE, ptr @_ZTIN6Assimp3FBX13NodeAttributeE }, comdat, align 8

; Function Attrs: mustprogress nounwind uwtable
define linkonce_odr hidden noundef nonnull align 8 dereferenceable(8) ptr @_ZNK9__gnu_cxx17__normal_iteratorIPKPKN6Assimp3FBX13NodeAttributeESt6vectorIS5_SaIS5_EEE4baseEv(ptr noundef nonnull align 8 dereferenceable(8) %0) #3 comdat align 2 {
  %2 = alloca ptr, align 8
  store ptr %0, ptr %2, align 8
  %3 = load ptr, ptr %2, align 8
  %4 = getelementptr inbounds nuw %"class.__gnu_cxx::__normal_iterator.150", ptr %3, i32 0, i32 0
  ret ptr %4
}

; Function Attrs: mustprogress nounwind uwtable
define linkonce_odr hidden void @_ZN9__gnu_cxx17__normal_iteratorIPKPKN6Assimp3FBX13NodeAttributeESt6vectorIS5_SaIS5_EEEC2ERKS7_(ptr noundef nonnull align 8 dereferenceable(8) %0, ptr noundef nonnull align 8 dereferenceable(8) %1) unnamed_addr #3 comdat align 2 {
  %3 = alloca ptr, align 8
  %4 = alloca ptr, align 8
  store ptr %0, ptr %3, align 8
  store ptr %1, ptr %4, align 8
  %5 = load ptr, ptr %3, align 8
  %6 = getelementptr inbounds nuw %"class.__gnu_cxx::__normal_iterator.150", ptr %5, i32 0, i32 0
  %7 = load ptr, ptr %4, align 8
  %8 = load ptr, ptr %7, align 8
  store ptr %8, ptr %6, align 8
  ret void
}

; Function Attrs: mustprogress nounwind uwtable
define linkonce_odr hidden noundef nonnull align 8 dereferenceable(8) ptr @_ZN9__gnu_cxx17__normal_iteratorIPKPKN6Assimp3FBX13NodeAttributeESt6vectorIS5_SaIS5_EEEppEv(ptr noundef nonnull align 8 dereferenceable(8) %0) #3 comdat align 2 {
  %2 = alloca ptr, align 8
  store ptr %0, ptr %2, align 8
  %3 = load ptr, ptr %2, align 8
  %4 = getelementptr inbounds nuw %"class.__gnu_cxx::__normal_iterator.150", ptr %3, i32 0, i32 0
  %5 = load ptr, ptr %4, align 8
  %6 = getelementptr inbounds nuw ptr, ptr %5, i32 1
  store ptr %6, ptr %4, align 8
  ret ptr %3
}

; Function Attrs: mustprogress nounwind uwtable
define linkonce_odr hidden noundef nonnull align 8 dereferenceable(8) ptr @_ZNK9__gnu_cxx17__normal_iteratorIPKPKN6Assimp3FBX13NodeAttributeESt6vectorIS5_SaIS5_EEEdeEv(ptr noundef nonnull align 8 dereferenceable(8) %0) #3 comdat align 2 {
  %2 = alloca ptr, align 8
  store ptr %0, ptr %2, align 8
  %3 = load ptr, ptr %2, align 8
  %4 = getelementptr inbounds nuw %"class.__gnu_cxx::__normal_iterator.150", ptr %3, i32 0, i32 0
  %5 = load ptr, ptr %4, align 8
  ret ptr %5
}

; Function Attrs: inlinehint mustprogress nounwind uwtable
define linkonce_odr hidden noundef zeroext i1 @_ZN9__gnu_cxxneIPKPKN6Assimp3FBX13NodeAttributeESt6vectorIS5_SaIS5_EEEEbRKNS_17__normal_iteratorIT_T0_EESG_(ptr noundef nonnull align 8 dereferenceable(8) %0, ptr noundef nonnull align 8 dereferenceable(8) %1) #11 comdat {
  %3 = alloca ptr, align 8
  %4 = alloca ptr, align 8
  store ptr %0, ptr %3, align 8
  store ptr %1, ptr %4, align 8
  %5 = load ptr, ptr %3, align 8
  %6 = call noundef nonnull align 8 dereferenceable(8) ptr @_ZNK9__gnu_cxx17__normal_iteratorIPKPKN6Assimp3FBX13NodeAttributeESt6vectorIS5_SaIS5_EEE4baseEv(ptr noundef nonnull align 8 dereferenceable(8) %5) #25
  %7 = load ptr, ptr %6, align 8
  %8 = load ptr, ptr %4, align 8
  %9 = call noundef nonnull align 8 dereferenceable(8) ptr @_ZNK9__gnu_cxx17__normal_iteratorIPKPKN6Assimp3FBX13NodeAttributeESt6vectorIS5_SaIS5_EEE4baseEv(ptr noundef nonnull align 8 dereferenceable(8) %8) #25
  %10 = load ptr, ptr %9, align 8
  %11 = icmp ne ptr %7, %10
  ret i1 %11
}

; Function Attrs: mustprogress nounwind uwtable
define linkonce_odr hidden ptr @_ZNKSt6vectorIPKN6Assimp3FBX13NodeAttributeESaIS4_EE3endEv(ptr noundef nonnull align 8 dereferenceable(24) %0) #3 comdat align 2 {
  %2 = alloca %"class.__gnu_cxx::__normal_iterator.150", align 8
  %3 = alloca ptr, align 8
  store ptr %0, ptr %3, align 8
  %4 = load ptr, ptr %3, align 8
  %5 = getelementptr inbounds nuw %"struct.std::_Vector_base.126", ptr %4, i32 0, i32 0
  %6 = getelementptr inbounds nuw %"struct.std::_Vector_base<const Assimp::FBX::NodeAttribute *, std::allocator<const Assimp::FBX::NodeAttribute *>>::_Vector_impl_data", ptr %5, i32 0, i32 1
  call void @_ZN9__gnu_cxx17__normal_iteratorIPKPKN6Assimp3FBX13NodeAttributeESt6vectorIS5_SaIS5_EEEC2ERKS7_(ptr noundef nonnull align 8 dereferenceable(8) %2, ptr noundef nonnull align 8 dereferenceable(8) %6) #25
  %7 = getelementptr inbounds nuw %"class.__gnu_cxx::__normal_iterator.150", ptr %2, i32 0, i32 0
  %8 = load ptr, ptr %7, align 8
  ret ptr %8
}

; Function Attrs: mustprogress nounwind uwtable
define linkonce_odr hidden ptr @_ZNKSt6vectorIPKN6Assimp3FBX13NodeAttributeESaIS4_EE5beginEv(ptr noundef nonnull align 8 dereferenceable(24) %0) #3 comdat align 2 {
  %2 = alloca %"class.__gnu_cxx::__normal_iterator.150", align 8
  %3 = alloca ptr, align 8
  store ptr %0, ptr %3, align 8
  %4 = load ptr, ptr %3, align 8
  %5 = getelementptr inbounds nuw %"struct.std::_Vector_base.126", ptr %4, i32 0, i32 0
  %6 = getelementptr inbounds nuw %"struct.std::_Vector_base<const Assimp::FBX::NodeAttribute *, std::allocator<const Assimp::FBX::NodeAttribute *>>::_Vector_impl_data", ptr %5, i32 0, i32 0
  call void @_ZN9__gnu_cxx17__normal_iteratorIPKPKN6Assimp3FBX13NodeAttributeESt6vectorIS5_SaIS5_EEEC2ERKS7_(ptr noundef nonnull align 8 dereferenceable(8) %2, ptr noundef nonnull align 8 dereferenceable(8) %6) #25
  %7 = getelementptr inbounds nuw %"class.__gnu_cxx::__normal_iterator.150", ptr %2, i32 0, i32 0
  %8 = load ptr, ptr %7, align 8
  ret ptr %8
}

; Function Attrs: mustprogress nounwind uwtable
define linkonce_odr hidden noundef nonnull align 8 dereferenceable(24) ptr @_ZNK6Assimp3FBX5Model13GetAttributesEv(ptr noundef nonnull align 8 dereferenceable(208) %0) #3 comdat align 2 {
  %2 = alloca ptr, align 8
  store ptr %0, ptr %2, align 8
  %3 = load ptr, ptr %2, align 8
  %4 = getelementptr inbounds nuw %"class.Assimp::FBX::Model", ptr %3, i32 0, i32 3
  ret ptr %4
}

; Function Attrs: mustprogress uwtable
define hidden void @_ZN6Assimp3FBX12FBXConverter14ConvertCamerasERKNS0_5ModelERKNSt7__cxx1112basic_stringIcSt11char_traitsIcESaIcEEE(ptr noundef nonnull align 8 dereferenceable(489) %0, ptr noundef nonnull align 8 dereferenceable(208) %1, ptr noundef nonnull align 8 dereferenceable(32) %2) #1 align 2 {
  %4 = alloca ptr, align 8
  %5 = alloca ptr, align 8
  %6 = alloca ptr, align 8
  %7 = alloca ptr, align 8
  %8 = alloca ptr, align 8
  %9 = alloca %"class.__gnu_cxx::__normal_iterator.150", align 8
  %10 = alloca %"class.__gnu_cxx::__normal_iterator.150", align 8
  %11 = alloca ptr, align 8
  %12 = alloca ptr, align 8
  store ptr %0, ptr %4, align 8
  store ptr %1, ptr %5, align 8
  store ptr %2, ptr %6, align 8
  %13 = load ptr, ptr %4, align 8
  call void @llvm.lifetime.start.p0(i64 8, ptr %7) #25
  %14 = load ptr, ptr %5, align 8
  %15 = call noundef nonnull align 8 dereferenceable(24) ptr @_ZNK6Assimp3FBX5Model13GetAttributesEv(ptr noundef nonnull align 8 dereferenceable(208) %14)
  store ptr %15, ptr %7, align 8
  call void @llvm.lifetime.start.p0(i64 8, ptr %8) #25
  %16 = load ptr, ptr %7, align 8
  store ptr %16, ptr %8, align 8
  call void @llvm.lifetime.start.p0(i64 8, ptr %9) #25
  %17 = load ptr, ptr %8, align 8
  %18 = call ptr @_ZNKSt6vectorIPKN6Assimp3FBX13NodeAttributeESaIS4_EE5beginEv(ptr noundef nonnull align 8 dereferenceable(24) %17) #25
  %19 = getelementptr inbounds nuw %"class.__gnu_cxx::__normal_iterator.150", ptr %9, i32 0, i32 0
  store ptr %18, ptr %19, align 8
  call void @llvm.lifetime.start.p0(i64 8, ptr %10) #25
  %20 = load ptr, ptr %8, align 8
  %21 = call ptr @_ZNKSt6vectorIPKN6Assimp3FBX13NodeAttributeESaIS4_EE3endEv(ptr noundef nonnull align 8 dereferenceable(24) %20) #25
  %22 = getelementptr inbounds nuw %"class.__gnu_cxx::__normal_iterator.150", ptr %10, i32 0, i32 0
  store ptr %21, ptr %22, align 8
  br label %23

23:                                               ; preds = %42, %3
  %24 = call noundef zeroext i1 @_ZN9__gnu_cxxneIPKPKN6Assimp3FBX13NodeAttributeESt6vectorIS5_SaIS5_EEEEbRKNS_17__normal_iteratorIT_T0_EESG_(ptr noundef nonnull align 8 dereferenceable(8) %9, ptr noundef nonnull align 8 dereferenceable(8) %10) #25
  br i1 %24, label %26, label %25

25:                                               ; preds = %23
  call void @llvm.lifetime.end.p0(i64 8, ptr %10) #25
  call void @llvm.lifetime.end.p0(i64 8, ptr %9) #25
  call void @llvm.lifetime.end.p0(i64 8, ptr %8) #25
  br label %44

26:                                               ; preds = %23
  call void @llvm.lifetime.start.p0(i64 8, ptr %11) #25
  %27 = call noundef nonnull align 8 dereferenceable(8) ptr @_ZNK9__gnu_cxx17__normal_iteratorIPKPKN6Assimp3FBX13NodeAttributeESt6vectorIS5_SaIS5_EEEdeEv(ptr noundef nonnull align 8 dereferenceable(8) %9) #25
  %28 = load ptr, ptr %27, align 8
  store ptr %28, ptr %11, align 8
  call void @llvm.lifetime.start.p0(i64 8, ptr %12) #25
  %29 = load ptr, ptr %11, align 8
  %30 = icmp eq ptr %29, null
  br i1 %30, label %33, label %31

31:                                               ; preds = %26
  %32 = call ptr @__dynamic_cast(ptr %29, ptr @_ZTIN6Assimp3FBX13NodeAttributeE, ptr @_ZTIN6Assimp3FBX6CameraE, i64 0) #25
  br label %34

33:                                               ; preds = %26
  br label %34

34:                                               ; preds = %33, %31
  %35 = phi ptr [ %32, %31 ], [ null, %33 ]
  store ptr %35, ptr %12, align 8
  %36 = load ptr, ptr %12, align 8
  %37 = icmp ne ptr %36, null
  br i1 %37, label %38, label %41

38:                                               ; preds = %34
  %39 = load ptr, ptr %12, align 8
  %40 = load ptr, ptr %6, align 8
  call void @_ZN6Assimp3FBX12FBXConverter13ConvertCameraERKNS0_6CameraERKNSt7__cxx1112basic_stringIcSt11char_traitsIcESaIcEEE(ptr noundef nonnull align 8 dereferenceable(489) %13, ptr noundef nonnull align 8 dereferenceable(72) %39, ptr noundef nonnull align 8 dereferenceable(32) %40)
  br label %41

41:                                               ; preds = %38, %34
  call void @llvm.lifetime.end.p0(i64 8, ptr %12) #25
  call void @llvm.lifetime.end.p0(i64 8, ptr %11) #25
  br label %42

42:                                               ; preds = %41
  %43 = call noundef nonnull align 8 dereferenceable(8) ptr @_ZN9__gnu_cxx17__normal_iteratorIPKPKN6Assimp3FBX13NodeAttributeESt6vectorIS5_SaIS5_EEEppEv(ptr noundef nonnull align 8 dereferenceable(8) %9) #25
  br label %23

44:                                               ; preds = %25
  call void @llvm.lifetime.end.p0(i64 8, ptr %7) #25
  ret void
}